; Function Attrs: nounwind uwtable
define hidden i32 @drsuapi_dissect_struct_DsWriteAccountSpnResult1(ptr noundef %0, i32 noundef %1, ptr noundef %2, ptr noundef %3, ptr noundef %4, ptr noundef %5, i32 noundef %6, i32 %7) local_unnamed_addr #0 {
  %9 = getelementptr inbounds nuw i8, ptr %4, i64 28
  %10 = load i32, ptr %9, align 4
  %.not = icmp ne i32 %10, 0
  %11 = and i32 %1, 3
  %.not26 = icmp eq i32 %11, 0
  %or.cond = or i1 %.not26, %.not
  %12 = and i32 %1, -4
  %13 = add i32 %12, 4
  %.0 = select i1 %or.cond, i32 %1, i32 %13
  %.not27 = icmp eq ptr %3, null
  br i1 %.not27, label %18, label %14

14:                                               ; preds = %8
  %15 = tail call ptr @proto_tree_add_item(ptr noundef nonnull %3, i32 noundef %6, ptr noundef %0, i32 noundef %.0, i32 noundef -1, i32 noundef 0) #5
  %16 = load i32, ptr @ett_drsuapi_drsuapi_DsWriteAccountSpnResult1, align 4
  %17 = tail call ptr @proto_item_add_subtree(ptr noundef %15, i32 noundef %16) #5
  br label %18

18:                                               ; preds = %14, %8
  %.024 = phi ptr [ %15, %14 ], [ null, %8 ]
  %.023 = phi ptr [ %17, %14 ], [ null, %8 ]
  %19 = load i32, ptr @hf_drsuapi_drsuapi_DsWriteAccountSpnResult1_status, align 4
  %20 = tail call i32 @PIDL_dissect_uint32(ptr noundef %0, i32 noundef %.0, ptr noundef %2, ptr noundef %.023, ptr noundef nonnull %4, ptr noundef %5, i32 noundef %19, i32 noundef 0) #5
  %21 = sub i32 %20, %.0
  tail call void @proto_item_set_len(ptr noundef %.024, i32 noundef %21) #5
  %22 = getelementptr inbounds nuw i8, ptr %4, i64 72
  %23 = load ptr, ptr %22, align 8
  %24 = getelementptr inbounds nuw i8, ptr %23, i64 96
  %25 = load i32, ptr %24, align 8
  %26 = and i32 %25, 1
  %.not28 = icmp eq i32 %26, 0
  br i1 %.not28, label %33, label %27

27:                                               ; preds = %18
  %28 = load i32, ptr %9, align 4
  %.not29 = icmp ne i32 %28, 0
  %29 = and i32 %20, 3
  %.not30 = icmp eq i32 %29, 0
  %or.cond31 = or i1 %.not30, %.not29
  br i1 %or.cond31, label %33, label %30

30:                                               ; preds = %27
  %31 = and i32 %20, -4
  %32 = add i32 %31, 4
  br label %33

33:                                               ; preds = %27, %30, %18
  %.1 = phi i32 [ %20, %27 ], [ %32, %30 ], [ %20, %18 ]
  ret i32 %.1
}